target datalayout = "e-m:e-p270:32:32-p271:32:32-p272:64:64-i64:64-i128:128-f80:128-n8:16:32:64-S128"
target triple = "x86_64-pc-linux-gnu"

%struct.slurm_update_node_msg = type { ptr, i32, ptr, ptr, ptr, ptr, ptr, ptr, ptr, ptr, ptr, ptr, i32, ptr, i32, i32, i32 }
%struct._GtkDialog = type { %struct._GtkWindow, ptr, ptr, ptr }
%struct._GtkWindow = type <{ %struct._GtkBin, ptr, ptr, ptr, ptr, ptr, ptr, ptr, ptr, ptr, ptr, i16, i32, [2 x i8], i32, i32, i32, i32, i32, i32, ptr }>
%struct._GtkBin = type { %struct._GtkContainer, ptr }
%struct._GtkContainer = type { %struct._GtkWidget, ptr, i32 }
%struct._GtkWidget = type { %struct._GtkObject, i16, i8, i8, ptr, ptr, %struct._GtkRequisition, %struct._GdkRectangle, ptr, ptr }
%struct._GtkObject = type { %struct._GObject, i32 }
%struct._GObject = type { %struct._GTypeInstance, i32, ptr }
%struct._GTypeInstance = type { ptr }
%struct._GtkRequisition = type { i32, i32 }
%struct._GdkRectangle = type { i32, i32, i32, i32 }

@.str = private unnamed_addr constant [12 x i8] c"node_info.c\00", align 1
@main_window = external global ptr, align 8
@.str.3 = private unnamed_addr constant [8 x i8] c"gtk-yes\00", align 1
@.str.4 = private unnamed_addr constant [11 x i8] c"gtk-cancel\00", align 1
@.str.6 = private unnamed_addr constant [19 x i8] c"No features given.\00", align 1
@.str.7 = private unnamed_addr constant [33 x i8] c"Node(s) %s updated successfully.\00", align 1
@.str.8 = private unnamed_addr constant [32 x i8] c"Problem updating node(s) %s: %s\00", align 1
@__func__.update_avail_features_node = private unnamed_addr constant [27 x i8] c"update_avail_features_node\00", align 1
@.str.9 = private unnamed_addr constant [42 x i8] c"Update Available Features for Node(s) %s?\00", align 1
@.str.10 = private unnamed_addr constant [35 x i8] c"Available Features for Node(s) %s?\00", align 1

; Function Attrs: nounwind uwtable
define dso_local i32 @update_avail_features_node(ptr noundef %0, ptr noundef %1, ptr noundef %2) #0 {
  %4 = alloca ptr, align 8
  %5 = alloca ptr, align 8
  %6 = alloca ptr, align 8
  %7 = alloca [100 x i8], align 16
  %8 = alloca ptr, align 8
  %9 = alloca ptr, align 8
  %10 = alloca ptr, align 8
  %11 = alloca ptr, align 8
  %12 = alloca i32, align 4
  %13 = alloca i32, align 4
  %14 = alloca i32, align 4
  store ptr %0, ptr %4, align 8
  store ptr %1, ptr %5, align 8
  store ptr %2, ptr %6, align 8
  call void @llvm.lifetime.start.p0(i64 100, ptr %7) #7
  call void @llvm.lifetime.start.p0(i64 8, ptr %8) #7
  store ptr null, ptr %8, align 8
  call void @llvm.lifetime.start.p0(i64 8, ptr %9) #7
  store ptr null, ptr %9, align 8
  call void @llvm.lifetime.start.p0(i64 8, ptr %10) #7
  store ptr null, ptr %10, align 8
  call void @llvm.lifetime.start.p0(i64 8, ptr %11) #7
  %15 = call ptr @slurm_xcalloc(i64 noundef 1, i64 noundef 128, i1 noundef zeroext true, i1 noundef zeroext false, ptr noundef @.str, i32 noundef 1101, ptr noundef @__func__.update_avail_features_node)
  store ptr %15, ptr %11, align 8
  call void @llvm.lifetime.start.p0(i64 4, ptr %12) #7
  store i32 0, ptr %12, align 4
  call void @llvm.lifetime.start.p0(i64 4, ptr %13) #7
  store i32 0, ptr %13, align 4
  call void @llvm.lifetime.start.p0(i64 4, ptr %14) #7
  store i32 0, ptr %14, align 4
  %16 = load ptr, ptr %4, align 8
  %17 = icmp ne ptr %16, null
  br i1 %17, label %29, label %18

18:                                               ; preds = %3
  %19 = getelementptr inbounds [100 x i8], ptr %7, i64 0, i64 0
  %20 = load ptr, ptr %5, align 8
  %21 = call i32 (ptr, i64, ptr, ...) @snprintf(ptr noundef %19, i64 noundef 100, ptr noundef @.str.9, ptr noundef %20) #7
  %22 = getelementptr inbounds [100 x i8], ptr %7, i64 0, i64 0
  %23 = load ptr, ptr @main_window, align 8
  %24 = call i64 @gtk_window_get_type() #8
  %25 = call ptr @g_type_check_instance_cast(ptr noundef %23, i64 noundef %24)
  %26 = call ptr (ptr, ptr, i32, ptr, ...) @gtk_dialog_new_with_buttons(ptr noundef %22, ptr noundef %25, i32 noundef 3, ptr noundef null)
  %27 = call i64 @gtk_dialog_get_type() #8
  %28 = call ptr @g_type_check_instance_cast(ptr noundef %26, i64 noundef %27)
  store ptr %28, ptr %4, align 8
  store i32 1, ptr %13, align 4
  br label %29

29:                                               ; preds = %18, %3
  %30 = load ptr, ptr %4, align 8
  %31 = call ptr @gtk_dialog_add_button(ptr noundef %30, ptr noundef @.str.3, i32 noundef -5)
  store ptr %31, ptr %10, align 8
  %32 = load ptr, ptr %4, align 8
  %33 = call i64 @gtk_window_get_type() #8
  %34 = call ptr @g_type_check_instance_cast(ptr noundef %32, i64 noundef %33)
  call void @gtk_window_set_type_hint(ptr noundef %34, i32 noundef 0)
  %35 = load ptr, ptr %4, align 8
  %36 = call i64 @gtk_window_get_type() #8
  %37 = call ptr @g_type_check_instance_cast(ptr noundef %35, i64 noundef %36)
  %38 = load ptr, ptr %10, align 8
  call void @gtk_window_set_default(ptr noundef %37, ptr noundef %38)
  %39 = load ptr, ptr %4, align 8
  %40 = call ptr @gtk_dialog_add_button(ptr noundef %39, ptr noundef @.str.4, i32 noundef -6)
  %41 = load ptr, ptr %11, align 8
  call void @slurm_init_update_node_msg(ptr noundef %41)
  %42 = load ptr, ptr %5, align 8
  %43 = call ptr @xstrdup(ptr noundef %42)
  %44 = load ptr, ptr %11, align 8
  %45 = getelementptr inbounds nuw %struct.slurm_update_node_msg, ptr %44, i32 0, i32 11
  store ptr %43, ptr %45, align 8
  %46 = getelementptr inbounds [100 x i8], ptr %7, i64 0, i64 0
  %47 = load ptr, ptr %5, align 8
  %48 = call i32 (ptr, i64, ptr, ...) @snprintf(ptr noundef %46, i64 noundef 100, ptr noundef @.str.10, ptr noundef %47) #7
  %49 = getelementptr inbounds [100 x i8], ptr %7, i64 0, i64 0
  %50 = call ptr @gtk_label_new(ptr noundef %49)
  store ptr %50, ptr %10, align 8
  %51 = load ptr, ptr %4, align 8
  %52 = getelementptr inbounds nuw %struct._GtkDialog, ptr %51, i32 0, i32 1
  %53 = load ptr, ptr %52, align 8
  %54 = call i64 @gtk_box_get_type() #8
  %55 = call ptr @g_type_check_instance_cast(ptr noundef %53, i64 noundef %54)
  %56 = load ptr, ptr %10, align 8
  call void @gtk_box_pack_start(ptr noundef %55, ptr noundef %56, i32 noundef 0, i32 noundef 0, i32 noundef 0)
  %57 = call ptr @create_entry()
  store ptr %57, ptr %9, align 8
  %58 = load ptr, ptr %9, align 8
  %59 = icmp ne ptr %58, null
  br i1 %59, label %61, label %60

60:                                               ; preds = %29
  br label %117

61:                                               ; preds = %29
  %62 = load ptr, ptr %6, align 8
  %63 = icmp ne ptr %62, null
  br i1 %63, label %64, label %69

64:                                               ; preds = %61
  %65 = load ptr, ptr %9, align 8
  %66 = call i64 @gtk_entry_get_type() #8
  %67 = call ptr @g_type_check_instance_cast(ptr noundef %65, i64 noundef %66)
  %68 = load ptr, ptr %6, align 8
  call void @gtk_entry_set_text(ptr noundef %67, ptr noundef %68)
  br label %69

69:                                               ; preds = %64, %61
  %70 = load ptr, ptr %4, align 8
  %71 = getelementptr inbounds nuw %struct._GtkDialog, ptr %70, i32 0, i32 1
  %72 = load ptr, ptr %71, align 8
  %73 = call i64 @gtk_box_get_type() #8
  %74 = call ptr @g_type_check_instance_cast(ptr noundef %72, i64 noundef %73)
  %75 = load ptr, ptr %9, align 8
  call void @gtk_box_pack_start(ptr noundef %74, ptr noundef %75, i32 noundef 1, i32 noundef 1, i32 noundef 0)
  %76 = load ptr, ptr %4, align 8
  %77 = call i64 @gtk_widget_get_type() #8
  %78 = call ptr @g_type_check_instance_cast(ptr noundef %76, i64 noundef %77)
  call void @gtk_widget_show_all(ptr noundef %78)
  %79 = load ptr, ptr %4, align 8
  %80 = call i32 @gtk_dialog_run(ptr noundef %79)
  store i32 %80, ptr %12, align 4
  %81 = load i32, ptr %12, align 4
  %82 = icmp eq i32 %81, -5
  br i1 %82, label %83, label %116

83:                                               ; preds = %69
  %84 = load ptr, ptr %9, align 8
  %85 = call i64 @gtk_entry_get_type() #8
  %86 = call ptr @g_type_check_instance_cast(ptr noundef %84, i64 noundef %85)
  %87 = call ptr @gtk_entry_get_text(ptr noundef %86)
  %88 = call ptr @xstrdup(ptr noundef %87)
  %89 = load ptr, ptr %11, align 8
  %90 = getelementptr inbounds nuw %struct.slurm_update_node_msg, ptr %89, i32 0, i32 4
  store ptr %88, ptr %90, align 8
  %91 = load ptr, ptr %11, align 8
  %92 = getelementptr inbounds nuw %struct.slurm_update_node_msg, ptr %91, i32 0, i32 4
  %93 = load ptr, ptr %92, align 8
  %94 = icmp ne ptr %93, null
  br i1 %94, label %99, label %95

95:                                               ; preds = %83
  %96 = call noalias ptr (ptr, ...) @g_strdup_printf(ptr noundef @.str.6)
  store ptr %96, ptr %8, align 8
  %97 = load ptr, ptr %8, align 8
  call void @display_edit_note(ptr noundef %97)
  %98 = load ptr, ptr %8, align 8
  call void @g_free(ptr noundef %98)
  br label %117

99:                                               ; preds = %83
  %100 = load ptr, ptr %11, align 8
  %101 = call i32 @slurm_update_node(ptr noundef %100)
  store i32 %101, ptr %14, align 4
  %102 = icmp eq i32 %101, 0
  br i1 %102, label %103, label %108

103:                                              ; preds = %99
  %104 = load ptr, ptr %5, align 8
  %105 = call noalias ptr (ptr, ...) @g_strdup_printf(ptr noundef @.str.7, ptr noundef %104)
  store ptr %105, ptr %8, align 8
  %106 = load ptr, ptr %8, align 8
  call void @display_edit_note(ptr noundef %106)
  %107 = load ptr, ptr %8, align 8
  call void @g_free(ptr noundef %107)
  br label %115

108:                                              ; preds = %99
  %109 = load ptr, ptr %5, align 8
  %110 = load i32, ptr %14, align 4
  %111 = call ptr @slurm_strerror(i32 noundef %110)
  %112 = call noalias ptr (ptr, ...) @g_strdup_printf(ptr noundef @.str.8, ptr noundef %109, ptr noundef %111)
  store ptr %112, ptr %8, align 8
  %113 = load ptr, ptr %8, align 8
  call void @display_edit_note(ptr noundef %113)
  %114 = load ptr, ptr %8, align 8
  call void @g_free(ptr noundef %114)
  br label %115

115:                                              ; preds = %108, %103
  br label %116

116:                                              ; preds = %115, %69
  br label %117

117:                                              ; preds = %116, %95, %60
  %118 = load ptr, ptr %11, align 8
  call void @slurm_free_update_node_msg(ptr noundef %118)
  %119 = load i32, ptr %13, align 4
  %120 = icmp ne i32 %119, 0
  br i1 %120, label %121, label %125

121:                                              ; preds = %117
  %122 = load ptr, ptr %4, align 8
  %123 = call i64 @gtk_widget_get_type() #8
  %124 = call ptr @g_type_check_instance_cast(ptr noundef %122, i64 noundef %123)
  call void @gtk_widget_destroy(ptr noundef %124)
  br label %125

125:                                              ; preds = %121, %117
  %126 = load i32, ptr %14, align 4
  call void @llvm.lifetime.end.p0(i64 4, ptr %14) #7
  call void @llvm.lifetime.end.p0(i64 4, ptr %13) #7
  call void @llvm.lifetime.end.p0(i64 4, ptr %12) #7
  call void @llvm.lifetime.end.p0(i64 8, ptr %11) #7
  call void @llvm.lifetime.end.p0(i64 8, ptr %10) #7
  call void @llvm.lifetime.end.p0(i64 8, ptr %9) #7
  call void @llvm.lifetime.end.p0(i64 8, ptr %8) #7
  call void @llvm.lifetime.end.p0(i64 100, ptr %7) #7
  ret i32 %126
}